; Function Attrs: mustprogress uwtable
define dso_local noundef zeroext i1 @_ZNK17cmGlobalGenerator16IsRootOnlyTargetEP17cmGeneratorTarget(ptr noundef nonnull align 8 dereferenceable(1778) %0, ptr noundef nonnull %1) local_unnamed_addr #3 align 2 {
  %3 = tail call noundef i32 @_ZNK17cmGeneratorTarget7GetTypeEv(ptr noundef nonnull align 8 dereferenceable(2728) %1)
  %4 = icmp eq i32 %3, 6
  br i1 %4, label %13, label %5

5:                                                ; preds = %2
  %6 = tail call noundef nonnull align 8 dereferenceable(32) ptr @_ZNK17cmGeneratorTarget7GetNameB5cxx11Ev(ptr noundef nonnull align 8 dereferenceable(2728) %1)
  %7 = load ptr, ptr %0, align 8
  %8 = getelementptr inbounds i8, ptr %7, i64 216
  %9 = load ptr, ptr %8, align 8
  %10 = tail call noundef ptr %9(ptr noundef nonnull align 8 dereferenceable(1778) %0)
  %11 = tail call noundef i32 @_ZNKSt7__cxx1112basic_stringIcSt11char_traitsIcESaIcEE7compareEPKc(ptr noundef nonnull align 8 dereferenceable(32) %6, ptr noundef %10) #23
  %12 = icmp eq i32 %11, 0
  br label %13

13:                                               ; preds = %5, %2
  %14 = phi i1 [ true, %2 ], [ %12, %5 ]
  ret i1 %14
}